(lp0
(S'stty'
p1
S'/bin/stty'
p2
tp3
a(S'version.txt'
p4
S'/usr/share/arduino/lib/version.txt'
p5
tp6
a(S'used_libs'
p7
(lp8
S'/usr/share/arduino/hardware/arduino/cores/arduino'
p9
atp10
a(S'cc'
p11
S'/usr/bin/avr-gcc'
p12
tp13
a(S'cflags'
p14
ccopy_reg
_reconstructor
p15
(cino.utils
SpaceList
p16
c__builtin__
list
p17
(lp18
S'-mmcu=atmega328p'
p19
aS'-ffunction-sections'
p20
aS'-fdata-sections'
p21
aS'-g'
p22
aS'-Os'
p23
aS'-w'
p24
aS'-DF_CPU=16000000L'
p25
aS'-DARDUINO=100'
p26
aS'-I/usr/share/arduino/hardware/arduino/cores/arduino'
p27
aS'-I/usr/share/arduino/hardware/arduino/variants/standard'
p28
aS'-I/usr/share/arduino/hardware/arduino/cores/arduino'
p29
atp30
Rp31
tp32
a(S'arduino_libraries_dir'
p33
S'/usr/share/arduino/libraries'
p34
tp35
a(S'arduino_core_dir'
p36
g9
tp37
a(S'boards.txt'
p38
S'/usr/share/arduino/hardware/arduino/boards.txt'
p39
tp40
a(S'cxxflags'
p41
g15
(g16
g17
(lp42
S'-fno-exceptions'
p43
atp44
Rp45
tp46
a(S'arduino_variants_dir'
p47
S'/usr/share/arduino/hardware/arduino/variants'
p48
tp49
a(S'avrdude'
p50
S'/usr/share/arduino/hardware/tools/avrdude'
p51
tp52
a(S'avrdude.conf'
p53
S'/usr/share/arduino/hardware/tools/avrdude.conf'
p54
tp55
a(S'names'
p56
(dp57
S'cpp'
p58
S'%s.cpp'
p59
sS'obj'
p60
S'%s.o'
p61
sS'lib'
p62
S'lib%s.a'
p63
sS'deps'
p64
S'%s.d'
p65
stp66
a(S'deps'
p67
g15
(g16
g17
(lp68
S'.build/uno/src/dependencies.d'
p69
aS'.build/uno/arduino/dependencies.d'
p70
atp71
Rp72
tp73
a(S'elfflags'
p74
g15
(g16
g17
(lp75
g23
aS'-Wl,--gc-sections'
p76
ag19
atp77
Rp78
tp79
a(S'arduino_lib_version'
p80
g15
(cino.environment
Version
p81
c__builtin__
tuple
p82
(I1
I0
tp83
tp84
Rp85
tp86
a(S'objcopy'
p87
S'/usr/bin/avr-objcopy'
p88
tp89
a(S'ar'
p90
S'/usr/bin/avr-ar'
p91
tp92
a(S'board_models'
p93
cino.environment
BoardModels
p94
((lp95
(lp96
S'uno'
p97
a(dp98
S'build'
p99
(dp100
S'core'
p101
S'arduino'
p102
sS'mcu'
p103
S'atmega328p'
p104
sS'f_cpu'
p105
S'16000000L'
p106
sS'variant'
p107
S'standard'
p108
ssS'bootloader'
p109
(dp110
S'extended_fuses'
p111
S'0x05'
p112
sS'high_fuses'
p113
S'0xde'
p114
sS'low_fuses'
p115
S'0xff'
p116
sS'lock_bits'
p117
S'0x0F'
p118
sS'file'
p119
S'optiboot_atmega328.hex'
p120
sS'path'
p121
S'optiboot'
p122
sS'unlock_bits'
p123
S'0x3F'
p124
ssS'upload'
p125
(dp126
S'protocol'
p127
S'arduino'
p128
sS'maximum_size'
p129
S'32256'
p130
sS'speed'
p131
S'115200'
p132
ssS'name'
p133
S'Arduino Uno'
p134
saa(lp135
S'atmega328'
p136
a(dp137
S'build'
p138
(dp139
S'core'
p140
S'arduino'
p141
sS'mcu'
p142
S'atmega328p'
p143
sS'f_cpu'
p144
S'16000000L'
p145
sS'variant'
p146
S'standard'
p147
ssS'bootloader'
p148
(dp149
S'extended_fuses'
p150
S'0x05'
p151
sS'high_fuses'
p152
S'0xDA'
p153
sS'low_fuses'
p154
S'0xFF'
p155
sS'lock_bits'
p156
S'0x0F'
p157
sS'file'
p158
S'ATmegaBOOT_168_atmega328.hex'
p159
sS'path'
p160
S'atmega'
p161
sS'unlock_bits'
p162
S'0x3F'
p163
ssS'upload'
p164
(dp165
S'protocol'
p166
S'arduino'
p167
sS'maximum_size'
p168
S'30720'
p169
sS'speed'
p170
S'57600'
p171
ssS'name'
p172
S'Arduino Duemilanove w/ ATmega328'
p173
saa(lp174
S'diecimila'
p175
a(dp176
S'build'
p177
(dp178
S'core'
p179
S'arduino'
p180
sS'mcu'
p181
S'atmega168'
p182
sS'f_cpu'
p183
S'16000000L'
p184
sS'variant'
p185
S'standard'
p186
ssS'bootloader'
p187
(dp188
S'extended_fuses'
p189
S'0x00'
p190
sS'high_fuses'
p191
S'0xdd'
p192
sS'low_fuses'
p193
S'0xff'
p194
sS'lock_bits'
p195
S'0x0F'
p196
sS'file'
p197
S'ATmegaBOOT_168_diecimila.hex'
p198
sS'path'
p199
S'atmega'
p200
sS'unlock_bits'
p201
S'0x3F'
p202
ssS'upload'
p203
(dp204
S'protocol'
p205
S'arduino'
p206
sS'maximum_size'
p207
S'14336'
p208
sS'speed'
p209
S'19200'
p210
ssS'name'
p211
S'Arduino Diecimila or Duemilanove w/ ATmega168'
p212
saa(lp213
S'nano328'
p214
a(dp215
S'build'
p216
(dp217
S'core'
p218
S'arduino'
p219
sS'mcu'
p220
S'atmega328p'
p221
sS'f_cpu'
p222
S'16000000L'
p223
sS'variant'
p224
S'eightanaloginputs'
p225
ssS'bootloader'
p226
(dp227
S'extended_fuses'
p228
S'0x05'
p229
sS'high_fuses'
p230
S'0xDA'
p231
sS'low_fuses'
p232
S'0xFF'
p233
sS'lock_bits'
p234
S'0x0F'
p235
sS'file'
p236
S'ATmegaBOOT_168_atmega328.hex'
p237
sS'path'
p238
S'atmega'
p239
sS'unlock_bits'
p240
S'0x3F'
p241
ssS'upload'
p242
(dp243
S'protocol'
p244
S'arduino'
p245
sS'maximum_size'
p246
S'30720'
p247
sS'speed'
p248
S'57600'
p249
ssS'name'
p250
S'Arduino Nano w/ ATmega328'
p251
saa(lp252
S'nano'
p253
a(dp254
S'build'
p255
(dp256
S'core'
p257
S'arduino'
p258
sS'mcu'
p259
S'atmega168'
p260
sS'f_cpu'
p261
S'16000000L'
p262
sS'variant'
p263
S'eightanaloginputs'
p264
ssS'bootloader'
p265
(dp266
S'extended_fuses'
p267
S'0x00'
p268
sS'high_fuses'
p269
S'0xdd'
p270
sS'low_fuses'
p271
S'0xff'
p272
sS'lock_bits'
p273
S'0x0F'
p274
sS'file'
p275
S'ATmegaBOOT_168_diecimila.hex'
p276
sS'path'
p277
S'atmega'
p278
sS'unlock_bits'
p279
S'0x3F'
p280
ssS'upload'
p281
(dp282
S'protocol'
p283
S'arduino'
p284
sS'maximum_size'
p285
S'14336'
p286
sS'speed'
p287
S'19200'
p288
ssS'name'
p289
S'Arduino Nano w/ ATmega168'
p290
saa(lp291
S'mega2560'
p292
a(dp293
S'build'
p294
(dp295
S'core'
p296
S'arduino'
p297
sS'mcu'
p298
S'atmega2560'
p299
sS'f_cpu'
p300
S'16000000L'
p301
sS'variant'
p302
S'mega'
p303
ssS'bootloader'
p304
(dp305
S'extended_fuses'
p306
S'0xFD'
p307
sS'high_fuses'
p308
S'0xD8'
p309
sS'low_fuses'
p310
S'0xFF'
p311
sS'lock_bits'
p312
S'0x0F'
p313
sS'file'
p314
S'stk500boot_v2_mega2560.hex'
p315
sS'path'
p316
S'stk500v2'
p317
sS'unlock_bits'
p318
S'0x3F'
p319
ssS'upload'
p320
(dp321
S'protocol'
p322
S'stk500v2'
p323
sS'maximum_size'
p324
S'258048'
p325
sS'speed'
p326
S'115200'
p327
ssS'name'
p328
S'Arduino Mega 2560 or Mega ADK'
p329
saa(lp330
S'mega'
p331
a(dp332
S'build'
p333
(dp334
S'core'
p335
S'arduino'
p336
sS'mcu'
p337
S'atmega1280'
p338
sS'f_cpu'
p339
S'16000000L'
p340
sS'variant'
p341
S'mega'
p342
ssS'bootloader'
p343
(dp344
S'extended_fuses'
p345
S'0xF5'
p346
sS'high_fuses'
p347
S'0xDA'
p348
sS'low_fuses'
p349
S'0xFF'
p350
sS'lock_bits'
p351
S'0x0F'
p352
sS'file'
p353
S'ATmegaBOOT_168_atmega1280.hex'
p354
sS'path'
p355
S'atmega'
p356
sS'unlock_bits'
p357
S'0x3F'
p358
ssS'upload'
p359
(dp360
S'protocol'
p361
S'arduino'
p362
sS'maximum_size'
p363
S'126976'
p364
sS'speed'
p365
S'57600'
p366
ssS'name'
p367
S'Arduino Mega (ATmega1280)'
p368
saa(lp369
S'leonardo'
p370
a(dp371
S'build'
p372
(dp373
S'core'
p374
S'arduino'
p375
sS'f_cpu'
p376
S'16000000L'
p377
sS'vid'
p378
S'0x2341'
p379
sS'pid'
p380
S'0x8036'
p381
sS'variant'
p382
S'leonardo'
p383
sS'mcu'
p384
S'atmega32u4'
p385
ssS'bootloader'
p386
(dp387
S'extended_fuses'
p388
S'0xcb'
p389
sS'high_fuses'
p390
S'0xd8'
p391
sS'low_fuses'
p392
S'0xff'
p393
sS'lock_bits'
p394
S'0x2F'
p395
sS'file'
p396
S'Caterina-Leonardo.hex'
p397
sS'path'
p398
S'caterina'
p399
sS'unlock_bits'
p400
S'0x3F'
p401
ssS'upload'
p402
(dp403
S'protocol'
p404
S'avr109'
p405
sS'maximum_size'
p406
S'28672'
p407
sS'speed'
p408
S'57600'
p409
sS'disable_flushing'
p410
S'true'
p411
ssS'name'
p412
S'Arduino Leonardo'
p413
saa(lp414
S'mini328'
p415
a(dp416
S'build'
p417
(dp418
S'core'
p419
S'arduino'
p420
sS'mcu'
p421
S'atmega328p'
p422
sS'f_cpu'
p423
S'16000000L'
p424
sS'variant'
p425
S'eightanaloginputs'
p426
ssS'bootloader'
p427
(dp428
S'extended_fuses'
p429
S'0x05'
p430
sS'high_fuses'
p431
S'0xd8'
p432
sS'low_fuses'
p433
S'0xff'
p434
sS'lock_bits'
p435
S'0x0F'
p436
sS'file'
p437
S'optiboot_atmega328-Mini.hex'
p438
sS'path'
p439
S'optiboot'
p440
sS'unlock_bits'
p441
S'0x3F'
p442
ssS'upload'
p443
(dp444
S'protocol'
p445
S'arduino'
p446
sS'maximum_size'
p447
S'28672'
p448
sS'speed'
p449
S'115200'
p450
ssS'name'
p451
S'Arduino Mini w/ ATmega328'
p452
saa(lp453
S'mini'
p454
a(dp455
S'build'
p456
(dp457
S'core'
p458
S'arduino'
p459
sS'mcu'
p460
S'atmega168'
p461
sS'f_cpu'
p462
S'16000000L'
p463
sS'variant'
p464
S'eightanaloginputs'
p465
ssS'bootloader'
p466
(dp467
S'extended_fuses'
p468
S'0x00'
p469
sS'high_fuses'
p470
S'0xdd'
p471
sS'low_fuses'
p472
S'0xff'
p473
sS'lock_bits'
p474
S'0x0F'
p475
sS'file'
p476
S'ATmegaBOOT_168_ng.hex'
p477
sS'path'
p478
S'atmega'
p479
sS'unlock_bits'
p480
S'0x3F'
p481
ssS'upload'
p482
(dp483
S'protocol'
p484
S'arduino'
p485
sS'maximum_size'
p486
S'14336'
p487
sS'speed'
p488
S'19200'
p489
ssS'name'
p490
S'Arduino Mini w/ ATmega168'
p491
saa(lp492
S'ethernet'
p493
a(dp494
S'build'
p495
(dp496
S'variant'
p497
S'standard'
p498
sS'mcu'
p499
S'atmega328p'
p500
sS'f_cpu'
p501
S'16000000L'
p502
sS'core'
p503
S'arduino'
p504
ssS'bootloader'
p505
(dp506
S'extended_fuses'
p507
S'0x05'
p508
sS'high_fuses'
p509
S'0xde'
p510
sS'low_fuses'
p511
S'0xff'
p512
sS'lock_bits'
p513
S'0x0F'
p514
sS'file'
p515
S'optiboot_atmega328.hex'
p516
sS'path'
p517
S'optiboot'
p518
sS'unlock_bits'
p519
S'0x3F'
p520
ssS'upload'
p521
(dp522
S'protocol'
p523
S'arduino'
p524
sS'maximum_size'
p525
S'32256'
p526
sS'speed'
p527
S'115200'
p528
ssS'name'
p529
S'Arduino Ethernet'
p530
saa(lp531
S'fio'
p532
a(dp533
S'build'
p534
(dp535
S'core'
p536
S'arduino'
p537
sS'mcu'
p538
S'atmega328p'
p539
sS'f_cpu'
p540
S'8000000L'
p541
sS'variant'
p542
S'eightanaloginputs'
p543
ssS'bootloader'
p544
(dp545
S'extended_fuses'
p546
S'0x05'
p547
sS'high_fuses'
p548
S'0xDA'
p549
sS'low_fuses'
p550
S'0xFF'
p551
sS'lock_bits'
p552
S'0x0F'
p553
sS'file'
p554
S'ATmegaBOOT_168_atmega328_pro_8MHz.hex'
p555
sS'path'
p556
S'arduino:atmega'
p557
sS'unlock_bits'
p558
S'0x3F'
p559
ssS'upload'
p560
(dp561
S'protocol'
p562
S'arduino'
p563
sS'maximum_size'
p564
S'30720'
p565
sS'speed'
p566
S'57600'
p567
ssS'name'
p568
S'Arduino Fio'
p569
saa(lp570
S'bt328'
p571
a(dp572
S'build'
p573
(dp574
S'core'
p575
S'arduino'
p576
sS'mcu'
p577
S'atmega328p'
p578
sS'f_cpu'
p579
S'16000000L'
p580
sS'variant'
p581
S'eightanaloginputs'
p582
ssS'bootloader'
p583
(dp584
S'extended_fuses'
p585
S'0x05'
p586
sS'high_fuses'
p587
S'0xd8'
p588
sS'low_fuses'
p589
S'0xff'
p590
sS'lock_bits'
p591
S'0x0F'
p592
sS'file'
p593
S'ATmegaBOOT_168_atmega328_bt.hex'
p594
sS'path'
p595
S'bt'
p596
sS'unlock_bits'
p597
S'0x3F'
p598
ssS'upload'
p599
(dp600
S'protocol'
p601
S'arduino'
p602
sS'maximum_size'
p603
S'28672'
p604
sS'speed'
p605
S'19200'
p606
sS'disable_flushing'
p607
S'true'
p608
ssS'name'
p609
S'Arduino BT w/ ATmega328'
p610
saa(lp611
S'bt'
p612
a(dp613
S'build'
p614
(dp615
S'core'
p616
S'arduino'
p617
sS'mcu'
p618
S'atmega168'
p619
sS'f_cpu'
p620
S'16000000L'
p621
sS'variant'
p622
S'eightanaloginputs'
p623
ssS'bootloader'
p624
(dp625
S'extended_fuses'
p626
S'0x00'
p627
sS'high_fuses'
p628
S'0xdd'
p629
sS'low_fuses'
p630
S'0xff'
p631
sS'lock_bits'
p632
S'0x0F'
p633
sS'file'
p634
S'ATmegaBOOT_168.hex'
p635
sS'path'
p636
S'bt'
p637
sS'unlock_bits'
p638
S'0x3F'
p639
ssS'upload'
p640
(dp641
S'protocol'
p642
S'arduino'
p643
sS'maximum_size'
p644
S'14336'
p645
sS'speed'
p646
S'19200'
p647
sS'disable_flushing'
p648
S'true'
p649
ssS'name'
p650
S'Arduino BT w/ ATmega168'
p651
saa(lp652
S'lilypad328'
p653
a(dp654
S'build'
p655
(dp656
S'core'
p657
S'arduino'
p658
sS'mcu'
p659
S'atmega328p'
p660
sS'f_cpu'
p661
S'8000000L'
p662
sS'variant'
p663
S'standard'
p664
ssS'bootloader'
p665
(dp666
S'extended_fuses'
p667
S'0x05'
p668
sS'high_fuses'
p669
S'0xDA'
p670
sS'low_fuses'
p671
S'0xFF'
p672
sS'lock_bits'
p673
S'0x0F'
p674
sS'file'
p675
S'ATmegaBOOT_168_atmega328_pro_8MHz.hex'
p676
sS'path'
p677
S'atmega'
p678
sS'unlock_bits'
p679
S'0x3F'
p680
ssS'upload'
p681
(dp682
S'protocol'
p683
S'arduino'
p684
sS'maximum_size'
p685
S'30720'
p686
sS'speed'
p687
S'57600'
p688
ssS'name'
p689
S'LilyPad Arduino w/ ATmega328'
p690
saa(lp691
S'lilypad'
p692
a(dp693
S'build'
p694
(dp695
S'core'
p696
S'arduino'
p697
sS'mcu'
p698
S'atmega168'
p699
sS'f_cpu'
p700
S'8000000L'
p701
sS'variant'
p702
S'standard'
p703
ssS'bootloader'
p704
(dp705
S'extended_fuses'
p706
S'0x00'
p707
sS'high_fuses'
p708
S'0xdd'
p709
sS'low_fuses'
p710
S'0xe2'
p711
sS'lock_bits'
p712
S'0x0F'
p713
sS'file'
p714
S'LilyPadBOOT_168.hex'
p715
sS'path'
p716
S'lilypad'
p717
sS'unlock_bits'
p718
S'0x3F'
p719
ssS'upload'
p720
(dp721
S'protocol'
p722
S'arduino'
p723
sS'maximum_size'
p724
S'14336'
p725
sS'speed'
p726
S'19200'
p727
ssS'name'
p728
S'LilyPad Arduino w/ ATmega168'
p729
saa(lp730
S'pro5v328'
p731
a(dp732
S'build'
p733
(dp734
S'core'
p735
S'arduino'
p736
sS'mcu'
p737
S'atmega328p'
p738
sS'f_cpu'
p739
S'16000000L'
p740
sS'variant'
p741
S'standard'
p742
ssS'bootloader'
p743
(dp744
S'extended_fuses'
p745
S'0x05'
p746
sS'high_fuses'
p747
S'0xDA'
p748
sS'low_fuses'
p749
S'0xFF'
p750
sS'lock_bits'
p751
S'0x0F'
p752
sS'file'
p753
S'ATmegaBOOT_168_atmega328.hex'
p754
sS'path'
p755
S'atmega'
p756
sS'unlock_bits'
p757
S'0x3F'
p758
ssS'upload'
p759
(dp760
S'protocol'
p761
S'arduino'
p762
sS'maximum_size'
p763
S'30720'
p764
sS'speed'
p765
S'57600'
p766
ssS'name'
p767
S'Arduino Pro or Pro Mini (5V, 16 MHz) w/ ATmega328'
p768
saa(lp769
S'pro5v'
p770
a(dp771
S'build'
p772
(dp773
S'core'
p774
S'arduino'
p775
sS'mcu'
p776
S'atmega168'
p777
sS'f_cpu'
p778
S'16000000L'
p779
sS'variant'
p780
S'standard'
p781
ssS'bootloader'
p782
(dp783
S'extended_fuses'
p784
S'0x00'
p785
sS'high_fuses'
p786
S'0xdd'
p787
sS'low_fuses'
p788
S'0xff'
p789
sS'lock_bits'
p790
S'0x0F'
p791
sS'file'
p792
S'ATmegaBOOT_168_diecimila.hex'
p793
sS'path'
p794
S'atmega'
p795
sS'unlock_bits'
p796
S'0x3F'
p797
ssS'upload'
p798
(dp799
S'protocol'
p800
S'arduino'
p801
sS'maximum_size'
p802
S'14336'
p803
sS'speed'
p804
S'19200'
p805
ssS'name'
p806
S'Arduino Pro or Pro Mini (5V, 16 MHz) w/ ATmega168'
p807
saa(lp808
S'pro328'
p809
a(dp810
S'build'
p811
(dp812
S'core'
p813
S'arduino'
p814
sS'mcu'
p815
S'atmega328p'
p816
sS'f_cpu'
p817
S'8000000L'
p818
sS'variant'
p819
S'standard'
p820
ssS'bootloader'
p821
(dp822
S'extended_fuses'
p823
S'0x05'
p824
sS'high_fuses'
p825
S'0xDA'
p826
sS'low_fuses'
p827
S'0xFF'
p828
sS'lock_bits'
p829
S'0x0F'
p830
sS'file'
p831
S'ATmegaBOOT_168_atmega328_pro_8MHz.hex'
p832
sS'path'
p833
S'atmega'
p834
sS'unlock_bits'
p835
S'0x3F'
p836
ssS'upload'
p837
(dp838
S'protocol'
p839
S'arduino'
p840
sS'maximum_size'
p841
S'30720'
p842
sS'speed'
p843
S'57600'
p844
ssS'name'
p845
S'Arduino Pro or Pro Mini (3.3V, 8 MHz) w/ ATmega328'
p846
saa(lp847
S'pro'
p848
a(dp849
S'build'
p850
(dp851
S'core'
p852
S'arduino'
p853
sS'mcu'
p854
S'atmega168'
p855
sS'f_cpu'
p856
S'8000000L'
p857
sS'variant'
p858
S'standard'
p859
ssS'bootloader'
p860
(dp861
S'extended_fuses'
p862
S'0x00'
p863
sS'high_fuses'
p864
S'0xdd'
p865
sS'low_fuses'
p866
S'0xc6'
p867
sS'lock_bits'
p868
S'0x0F'
p869
sS'file'
p870
S'ATmegaBOOT_168_pro_8MHz.hex'
p871
sS'path'
p872
S'atmega'
p873
sS'unlock_bits'
p874
S'0x3F'
p875
ssS'upload'
p876
(dp877
S'protocol'
p878
S'arduino'
p879
sS'maximum_size'
p880
S'14336'
p881
sS'speed'
p882
S'19200'
p883
ssS'name'
p884
S'Arduino Pro or Pro Mini (3.3V, 8 MHz) w/ ATmega168'
p885
saa(lp886
S'atmega168'
p887
a(dp888
S'build'
p889
(dp890
S'core'
p891
S'arduino'
p892
sS'mcu'
p893
S'atmega168'
p894
sS'f_cpu'
p895
S'16000000L'
p896
sS'variant'
p897
S'standard'
p898
ssS'bootloader'
p899
(dp900
S'extended_fuses'
p901
S'0x00'
p902
sS'high_fuses'
p903
S'0xdd'
p904
sS'low_fuses'
p905
S'0xff'
p906
sS'lock_bits'
p907
S'0x0F'
p908
sS'file'
p909
S'ATmegaBOOT_168_ng.hex'
p910
sS'path'
p911
S'atmega'
p912
sS'unlock_bits'
p913
S'0x3F'
p914
ssS'upload'
p915
(dp916
S'protocol'
p917
S'arduino'
p918
sS'maximum_size'
p919
S'14336'
p920
sS'speed'
p921
S'19200'
p922
ssS'name'
p923
S'Arduino NG or older w/ ATmega168'
p924
saa(lp925
S'atmega8'
p926
a(dp927
S'build'
p928
(dp929
S'core'
p930
S'arduino'
p931
sS'mcu'
p932
S'atmega8'
p933
sS'f_cpu'
p934
S'16000000L'
p935
sS'variant'
p936
S'standard'
p937
ssS'bootloader'
p938
(dp939
S'high_fuses'
p940
S'0xca'
p941
sS'low_fuses'
p942
S'0xdf'
p943
sS'lock_bits'
p944
S'0x0F'
p945
sS'file'
p946
S'ATmegaBOOT.hex'
p947
sS'path'
p948
S'atmega8'
p949
sS'unlock_bits'
p950
S'0x3F'
p951
ssS'upload'
p952
(dp953
S'protocol'
p954
S'arduino'
p955
sS'maximum_size'
p956
S'7168'
p957
sS'speed'
p958
S'19200'
p959
ssS'name'
p960
S'Arduino NG or older w/ ATmega8'
p961
saatp962
Rp963
(dp964
S'default'
p965
S'uno'
p966
sbtp967
a(S'cxx'
p968
S'/usr/bin/avr-g++'
p969
tp970
a(S'build_dir'
p971
S'.build/uno'
p972
tp973
a.